Certificate:
    Data:
        Version: 3 (0x2)
        Serial Number: 1 (0x1)
    Signature Algorithm: sha256WithRSAEncryption
        Issuer: CN=hss.openair4G.eur, C=FR, ST=PACA, L=Aix, O=Eurecom, OU=CM
        Validity
            Not Before: Dec 22 00:21:59 2016 GMT
            Not After : Dec 22 00:21:59 2017 GMT
        Subject: C=FR, ST=PACA, O=Eurecom, OU=CM, CN=hss.openair4G.eur
        Subject Public Key Info:
            Public Key Algorithm: rsaEncryption
                Public-Key: (1024 bit)
                Modulus:
                    00:d7:58:b8:ac:9c:5f:28:7f:40:f2:94:6f:39:1e:
                    d8:d8:8b:82:f1:18:95:f3:7c:bc:2a:92:80:e5:ed:
                    35:2b:2b:27:5e:7c:19:4d:85:80:18:04:56:0c:96:
                    35:1f:5a:fe:92:81:64:84:a4:50:b9:b2:62:d1:17:
                    b6:16:5c:8d:50:59:6d:e6:c3:7c:58:4a:21:fa:94:
                    76:5c:59:26:0b:bf:fd:fa:d9:a1:dd:b2:24:ba:02:
                    25:d8:9f:8d:a7:0a:25:da:f1:cc:44:79:b5:9a:b2:
                    31:44:7a:6e:c0:33:33:23:c4:c5:b2:39:5e:95:80:
                    93:f8:ac:27:57:cd:f3:61:5b
                Exponent: 65537 (0x10001)
        X509v3 extensions:
            X509v3 Basic Constraints: 
                CA:FALSE
            Netscape Comment: 
                OpenSSL Generated Certificate
            X509v3 Subject Key Identifier: 
                36:1C:94:AB:1D:17:0B:D8:CC:EB:6D:E4:B4:BF:EA:13:BA:5F:01:C0
            X509v3 Authority Key Identifier: 
                keyid:66:3E:E3:71:88:79:49:9C:BF:59:97:62:A2:45:5E:4E:CD:15:B2:2C

    Signature Algorithm: sha256WithRSAEncryption
         2d:ab:06:ec:a1:0a:4b:be:31:81:fd:38:3b:1e:65:5d:11:41:
         3e:1f:fd:20:6f:eb:9c:36:5e:6b:f2:75:09:75:72:08:c3:be:
         15:91:5f:a6:49:12:d6:17:fd:67:1b:76:1b:fc:7c:1b:90:7d:
         4d:30:c5:cb:aa:6b:51:3d:fa:fc:9e:19:01:6d:4f:56:94:e6:
         0f:9f:84:30:7d:c8:b2:5c:03:95:e5:d1:8a:e1:cd:2a:5e:20:
         f1:f8:99:a9:a0:ea:0c:c3:da:c1:d8:03:87:b8:d6:36:94:73:
         24:08:df:5e:63:a5:e1:31:41:85:43:92:bc:cc:eb:05:e1:3c:
         b2:85
-----BEGIN CERTIFICATE-----
MIICrTCCAhagAwIBAgIBATANBgkqhkiG9w0BAQsFADBlMRowGAYDVQQDDBFoc3Mu
b3BlbmFpcjRHLmV1cjELMAkGA1UEBhMCRlIxDTALBgNVBAgMBFBBQ0ExDDAKBgNV
BAcMA0FpeDEQMA4GA1UECgwHRXVyZWNvbTELMAkGA1UECwwCQ00wHhcNMTYxMjIy
MDAyMTU5WhcNMTcxMjIyMDAyMTU5WjBXMQswCQYDVQQGEwJGUjENMAsGA1UECAwE
UEFDQTEQMA4GA1UECgwHRXVyZWNvbTELMAkGA1UECwwCQ00xGjAYBgNVBAMMEWhz
cy5vcGVuYWlyNEcuZXVyMIGfMA0GCSqGSIb3DQEBAQUAA4GNADCBiQKBgQDXWLis
nF8of0DylG85HtjYi4LxGJXzfLwqkoDl7TUrKydefBlNhYAYBFYMljUfWv6SgWSE
pFC5smLRF7YWXI1QWW3mw3xYSiH6lHZcWSYLv/362aHdsiS6AiXYn42nCiXa8cxE
ebWasjFEem7AMzMjxMWyOV6VgJP4rCdXzfNhWwIDAQABo3sweTAJBgNVHRMEAjAA
MCwGCWCGSAGG+EIBDQQfFh1PcGVuU1NMIEdlbmVyYXRlZCBDZXJ0aWZpY2F0ZTAd
BgNVHQ4EFgQUNhyUqx0XC9jM623ktL/qE7pfAcAwHwYDVR0jBBgwFoAUZj7jcYh5
SZy/WZdiokVeTs0VsiwwDQYJKoZIhvcNAQELBQADgYEALasG7KEKS74xgf04Ox5l
XRFBPh/9IG/rnDZea/J1CXVyCMO+FZFfpkkS1hf9Zxt2G/x8G5B9TTDFy6prUT36
/J4ZAW1PVpTmD5+EMH3IslwDleXRiuHNKl4g8fiZqaDqDMPawdgDh7jWNpRzJAjf
XmOl4TFBhUOSvMzrBeE8soU=
-----END CERTIFICATE-----
