Certificate:
    Data:
        Version: 3 (0x2)
        Serial Number: 1 (0x1)
    Signature Algorithm: sha256WithRSAEncryption
        Issuer: CN=muse-epc2.openair4G.eur, C=FR, ST=PACA, L=Aix, O=Eurecom, OU=CM
        Validity
            Not Before: Dec 22 00:22:36 2016 GMT
            Not After : Dec 22 00:22:36 2017 GMT
        Subject: C=FR, ST=PACA, O=Eurecom, OU=CM, CN=muse-epc2.openair4G.eur
        Subject Public Key Info:
            Public Key Algorithm: rsaEncryption
                Public-Key: (1024 bit)
                Modulus:
                    00:ac:70:8b:88:cb:ad:53:bf:64:ad:c3:8d:4f:de:
                    1e:48:e5:8e:85:df:91:34:68:04:fb:3c:6b:5c:34:
                    5e:1d:e7:c7:ec:8e:c8:7c:82:ab:39:7b:16:bf:6f:
                    8f:a0:fc:0a:b8:34:33:2f:5a:60:89:aa:48:71:49:
                    2f:45:fd:c3:db:4f:98:f4:07:73:ab:ad:83:94:06:
                    77:5a:fb:19:c0:c5:db:a2:34:79:bf:38:9e:a9:ec:
                    b9:6c:b4:18:d9:00:90:26:1c:95:6c:19:33:e4:e1:
                    2c:d1:79:6f:08:f6:f0:f0:6d:f1:54:98:aa:ed:bc:
                    b9:bc:3b:6f:ac:b8:92:97:65
                Exponent: 65537 (0x10001)
        X509v3 extensions:
            X509v3 Basic Constraints: 
                CA:FALSE
            Netscape Comment: 
                OpenSSL Generated Certificate
            X509v3 Subject Key Identifier: 
                C4:D7:FC:4B:1E:AB:49:CC:14:6C:73:33:E0:A7:35:C5:4E:47:FD:5E
            X509v3 Authority Key Identifier: 
                keyid:A5:09:BD:47:D9:B8:E3:56:6A:C9:B8:4C:A1:F4:6A:AA:6D:9B:4E:35

    Signature Algorithm: sha256WithRSAEncryption
         44:13:71:23:da:a6:d1:eb:64:00:3c:80:e1:50:12:72:2d:90:
         fa:c7:d3:59:42:93:29:df:ff:06:b9:b1:f1:0a:d8:61:2a:2f:
         df:53:6e:9c:0b:f4:7c:8a:3c:3b:97:46:50:b4:db:4c:b3:32:
         ef:58:25:d2:af:75:c8:c0:b2:bb:c3:30:39:4e:ae:33:04:67:
         0d:64:9e:4f:21:8e:4f:da:1d:1a:f8:e2:67:f9:e3:8a:f4:c9:
         2a:a5:34:69:ae:87:f5:83:1b:77:f0:d4:e2:dc:6d:61:8b:e2:
         66:18:42:c0:06:ca:a8:bc:07:8e:67:3b:44:0a:6e:c3:2f:d6:
         9a:0e
-----BEGIN CERTIFICATE-----
MIICuTCCAiKgAwIBAgIBATANBgkqhkiG9w0BAQsFADBrMSAwHgYDVQQDDBdtdXNl
LWVwYzIub3BlbmFpcjRHLmV1cjELMAkGA1UEBhMCRlIxDTALBgNVBAgMBFBBQ0Ex
DDAKBgNVBAcMA0FpeDEQMA4GA1UECgwHRXVyZWNvbTELMAkGA1UECwwCQ00wHhcN
MTYxMjIyMDAyMjM2WhcNMTcxMjIyMDAyMjM2WjBdMQswCQYDVQQGEwJGUjENMAsG
A1UECAwEUEFDQTEQMA4GA1UECgwHRXVyZWNvbTELMAkGA1UECwwCQ00xIDAeBgNV
BAMMF211c2UtZXBjMi5vcGVuYWlyNEcuZXVyMIGfMA0GCSqGSIb3DQEBAQUAA4GN
ADCBiQKBgQCscIuIy61Tv2Stw41P3h5I5Y6F35E0aAT7PGtcNF4d58fsjsh8gqs5
exa/b4+g/Aq4NDMvWmCJqkhxSS9F/cPbT5j0B3OrrYOUBnda+xnAxduiNHm/OJ6p
7LlstBjZAJAmHJVsGTPk4SzReW8I9vDwbfFUmKrtvLm8O2+suJKXZQIDAQABo3sw
eTAJBgNVHRMEAjAAMCwGCWCGSAGG+EIBDQQfFh1PcGVuU1NMIEdlbmVyYXRlZCBD
ZXJ0aWZpY2F0ZTAdBgNVHQ4EFgQUxNf8Sx6rScwUbHMz4Kc1xU5H/V4wHwYDVR0j
BBgwFoAUpQm9R9m441ZqybhMofRqqm2bTjUwDQYJKoZIhvcNAQELBQADgYEARBNx
I9qm0etkADyA4VASci2Q+sfTWUKTKd//Brmx8QrYYSov31NunAv0fIo8O5dGULTb
TLMy71gl0q91yMCyu8MwOU6uMwRnDWSeTyGOT9odGvjiZ/njivTJKqU0aa6H9YMb
d/DU4txtYYviZhhCwAbKqLwHjmc7RApuwy/Wmg4=
-----END CERTIFICATE-----
